target datalayout = "e-m:e-p270:32:32-p271:32:32-p272:64:64-i64:64-i128:128-f80:128-n8:16:32:64-S128"
target triple = "x86_64-pc-linux-gnu"

%struct._packet_info = type { ptr, ptr, i32, i32, %struct.nstime_t, %struct.nstime_t, %struct.nstime_t, i8, ptr, ptr, ptr, ptr, %struct._address, %struct._address, %struct._address, %struct._address, %struct._address, %struct._address, i32, ptr, i8, [3 x i8], %struct.anon, i32, i32, i32, i32, ptr, i8, ptr, ptr, i16, i16, i32, i32, i16, i32, i32, ptr, ptr, ptr, i8, i8, i16, i16, i16, i32, i16, i16, ptr, ptr, ptr, ptr, ptr, i32, i32 }
%struct.nstime_t = type { i64, i32 }
%struct._address = type { i32, i32, ptr, ptr }
%struct.anon = type { i8, [3 x i8] }

@hf_vsncp_opt_type = internal global i32 0, align 4
@hf_vsncp_opt_length = internal global i32 0, align 4
@hf_vsncp_access_point_name = internal global i32 0, align 4
@ett_vsncp_apname_opt = internal global i32 0, align 4
@proto_vsncp_option_apname = internal global i32 0, align 4
@.str.1006 = private unnamed_addr constant [1 x i8] zeroinitializer, align 1
@.str.1007 = private unnamed_addr constant [2 x i8] c"s\00", align 1
@.str.1295 = private unnamed_addr constant [8 x i8] c"%s (%u)\00", align 1
@.str.1371 = private unnamed_addr constant [24 x i8] c"Label%d (%d byte%s): %s\00", align 1

; Function Attrs: null_pointer_is_valid sspstrong uwtable
define internal void @dissect_vsncp_opt_type_len(ptr noundef %0, i32 noundef %1, ptr noundef %2, ptr noundef %3) #1 {
  %5 = alloca ptr, align 8
  %6 = alloca i32, align 4
  %7 = alloca ptr, align 8
  %8 = alloca ptr, align 8
  %9 = alloca i8, align 1
  store ptr %0, ptr %5, align 8
  store i32 %1, ptr %6, align 4
  store ptr %2, ptr %7, align 8
  store ptr %3, ptr %8, align 8
  call void @llvm.lifetime.start.p0(i64 1, ptr %9) #6
  %10 = load ptr, ptr %5, align 8
  %11 = load i32, ptr %6, align 4
  %12 = call zeroext i8 @tvb_get_uint8(ptr noundef %10, i32 noundef %11)
  store i8 %12, ptr %9, align 1
  %13 = load ptr, ptr %7, align 8
  %14 = load i32, ptr @hf_vsncp_opt_type, align 4
  %15 = load ptr, ptr %5, align 8
  %16 = load i32, ptr %6, align 4
  %17 = load i8, ptr %9, align 1
  %18 = zext i8 %17 to i32
  %19 = load ptr, ptr %8, align 8
  %20 = load i8, ptr %9, align 1
  %21 = zext i8 %20 to i32
  %22 = call ptr (ptr, i32, ptr, i32, i32, i32, ptr, ...) @proto_tree_add_uint_format_value(ptr noundef %13, i32 noundef %14, ptr noundef %15, i32 noundef %16, i32 noundef 1, i32 noundef %18, ptr noundef @.str.1295, ptr noundef %19, i32 noundef %21)
  %23 = load ptr, ptr %7, align 8
  %24 = load i32, ptr @hf_vsncp_opt_length, align 4
  %25 = load ptr, ptr %5, align 8
  %26 = load i32, ptr %6, align 4
  %27 = add i32 %26, 1
  %28 = call ptr @proto_tree_add_item(ptr noundef %23, i32 noundef %24, ptr noundef %25, i32 noundef %27, i32 noundef 1, i32 noundef 0)
  call void @llvm.lifetime.end.p0(i64 1, ptr %9) #6
  ret void
}

; Function Attrs: null_pointer_is_valid sspstrong uwtable
define internal i32 @dissect_vsncp_apname_opt(ptr noundef %0, ptr noundef %1, ptr noundef %2, ptr noundef %3) #1 {
  %5 = alloca ptr, align 8
  %6 = alloca ptr, align 8
  %7 = alloca ptr, align 8
  %8 = alloca ptr, align 8
  %9 = alloca ptr, align 8
  %10 = alloca ptr, align 8
  %11 = alloca i32, align 4
  %12 = alloca i32, align 4
  %13 = alloca i8, align 1
  %14 = alloca i8, align 1
  %15 = alloca i8, align 1
  %16 = alloca i32, align 4
  store ptr %0, ptr %5, align 8
  store ptr %1, ptr %6, align 8
  store ptr %2, ptr %7, align 8
  store ptr %3, ptr %8, align 8
  call void @llvm.lifetime.start.p0(i64 8, ptr %9) #6
  call void @llvm.lifetime.start.p0(i64 8, ptr %10) #6
  call void @llvm.lifetime.start.p0(i64 4, ptr %11) #6
  store i32 0, ptr %11, align 4
  call void @llvm.lifetime.start.p0(i64 4, ptr %12) #6
  %17 = load ptr, ptr %5, align 8
  %18 = call i32 @tvb_reported_length(ptr noundef %17)
  store i32 %18, ptr %12, align 4
  %19 = load ptr, ptr %7, align 8
  %20 = load i32, ptr @proto_vsncp_option_apname, align 4
  %21 = load ptr, ptr %5, align 8
  %22 = load i32, ptr %12, align 4
  %23 = call ptr @proto_tree_add_item(ptr noundef %19, i32 noundef %20, ptr noundef %21, i32 noundef 0, i32 noundef %22, i32 noundef 0)
  store ptr %23, ptr %10, align 8
  %24 = load ptr, ptr %10, align 8
  %25 = load i32, ptr @ett_vsncp_apname_opt, align 4
  %26 = call ptr @proto_item_add_subtree(ptr noundef %24, i32 noundef %25)
  store ptr %26, ptr %9, align 8
  %27 = load ptr, ptr %5, align 8
  %28 = load ptr, ptr %9, align 8
  %29 = load i32, ptr @proto_vsncp_option_apname, align 4
  %30 = call ptr @proto_registrar_get_name(i32 noundef %29)
  call void @dissect_vsncp_opt_type_len(ptr noundef %27, i32 noundef 0, ptr noundef %28, ptr noundef %30)
  %31 = load i32, ptr %12, align 4
  %32 = icmp sgt i32 %31, 2
  br i1 %32, label %33, label %91

33:                                               ; preds = %4
  call void @llvm.lifetime.start.p0(i64 1, ptr %13) #6
  store i8 0, ptr %13, align 1
  call void @llvm.lifetime.start.p0(i64 1, ptr %14) #6
  store i8 1, ptr %14, align 1
  call void @llvm.lifetime.start.p0(i64 1, ptr %15) #6
  call void @llvm.lifetime.start.p0(i64 4, ptr %16) #6
  %34 = load i32, ptr %11, align 4
  %35 = add i32 %34, 2
  store i32 %35, ptr %16, align 4
  br label %36

36:                                               ; preds = %42, %33
  %37 = load i8, ptr %13, align 1
  %38 = zext i8 %37 to i32
  %39 = load i32, ptr %12, align 4
  %40 = sub i32 %39, 2
  %41 = icmp slt i32 %38, %40
  br i1 %41, label %42, label %90

42:                                               ; preds = %36
  %43 = load ptr, ptr %5, align 8
  %44 = load i32, ptr %16, align 4
  %45 = add i32 %44, 1
  store i32 %45, ptr %16, align 4
  %46 = call zeroext i8 @tvb_get_uint8(ptr noundef %43, i32 noundef %44)
  store i8 %46, ptr %15, align 1
  %47 = load ptr, ptr %9, align 8
  %48 = load i32, ptr @hf_vsncp_access_point_name, align 4
  %49 = load ptr, ptr %5, align 8
  %50 = load i32, ptr %16, align 4
  %51 = load i8, ptr %15, align 1
  %52 = zext i8 %51 to i32
  %53 = load ptr, ptr %6, align 8
  %54 = getelementptr inbounds nuw %struct._packet_info, ptr %53, i32 0, i32 51
  %55 = load ptr, ptr %54, align 8
  %56 = load ptr, ptr %5, align 8
  %57 = load i32, ptr %16, align 4
  %58 = load i8, ptr %15, align 1
  %59 = zext i8 %58 to i32
  %60 = call ptr @tvb_get_string_enc(ptr noundef %55, ptr noundef %56, i32 noundef %57, i32 noundef %59, i32 noundef 0)
  %61 = load i8, ptr %14, align 1
  %62 = add i8 %61, 1
  store i8 %62, ptr %14, align 1
  %63 = zext i8 %61 to i32
  %64 = load i8, ptr %15, align 1
  %65 = zext i8 %64 to i32
  %66 = load i8, ptr %15, align 1
  %67 = zext i8 %66 to i32
  %68 = icmp eq i32 %67, 1
  %69 = select i1 %68, ptr @.str.1006, ptr @.str.1007
  %70 = load ptr, ptr %6, align 8
  %71 = getelementptr inbounds nuw %struct._packet_info, ptr %70, i32 0, i32 51
  %72 = load ptr, ptr %71, align 8
  %73 = load ptr, ptr %5, align 8
  %74 = load i32, ptr %16, align 4
  %75 = load i8, ptr %15, align 1
  %76 = zext i8 %75 to i32
  %77 = call ptr @tvb_format_text(ptr noundef %72, ptr noundef %73, i32 noundef %74, i32 noundef %76)
  %78 = call ptr (ptr, i32, ptr, i32, i32, ptr, ptr, ...) @proto_tree_add_string_format(ptr noundef %47, i32 noundef %48, ptr noundef %49, i32 noundef %50, i32 noundef %52, ptr noundef %60, ptr noundef @.str.1371, i32 noundef %63, i32 noundef %65, ptr noundef %69, ptr noundef %77)
  %79 = load i8, ptr %15, align 1
  %80 = zext i8 %79 to i32
  %81 = load i32, ptr %16, align 4
  %82 = add i32 %81, %80
  store i32 %82, ptr %16, align 4
  %83 = load i8, ptr %15, align 1
  %84 = zext i8 %83 to i32
  %85 = add i32 %84, 1
  %86 = load i8, ptr %13, align 1
  %87 = zext i8 %86 to i32
  %88 = add i32 %87, %85
  %89 = trunc i32 %88 to i8
  store i8 %89, ptr %13, align 1
  br label %36, !llvm.loop !13

90:                                               ; preds = %36
  call void @llvm.lifetime.end.p0(i64 4, ptr %16) #6
  call void @llvm.lifetime.end.p0(i64 1, ptr %15) #6
  call void @llvm.lifetime.end.p0(i64 1, ptr %14) #6
  call void @llvm.lifetime.end.p0(i64 1, ptr %13) #6
  br label %91

91:                                               ; preds = %90, %4
  %92 = load ptr, ptr %5, align 8
  %93 = call i32 @tvb_captured_length(ptr noundef %92)
  call void @llvm.lifetime.end.p0(i64 4, ptr %12) #6
  call void @llvm.lifetime.end.p0(i64 4, ptr %11) #6
  call void @llvm.lifetime.end.p0(i64 8, ptr %10) #6
  call void @llvm.lifetime.end.p0(i64 8, ptr %9) #6
  ret i32 %93
}