; Function Attrs: null_pointer_is_valid sspstrong uwtable
define internal i32 @dissect_vsncp_apname_opt(ptr noundef %0, ptr noundef readonly captures(none) %1, ptr noundef %2, ptr readnone captures(none) %3) #1 {
  %5 = tail call i32 @tvb_reported_length(ptr noundef %0)
  %6 = load i32, ptr @proto_vsncp_option_apname, align 4
  %7 = tail call ptr @proto_tree_add_item(ptr noundef %2, i32 noundef %6, ptr noundef %0, i32 noundef 0, i32 noundef %5, i32 noundef 0)
  %8 = load i32, ptr @ett_vsncp_apname_opt, align 4
  %9 = tail call ptr @proto_item_add_subtree(ptr noundef %7, i32 noundef %8)
  %10 = load i32, ptr @proto_vsncp_option_apname, align 4
  %11 = tail call ptr @proto_registrar_get_name(i32 noundef %10)
  %12 = tail call zeroext i8 @tvb_get_uint8(ptr noundef %0, i32 noundef 0)
  %13 = load i32, ptr @hf_vsncp_opt_type, align 4
  %14 = zext i8 %12 to i32
  %15 = tail call ptr (ptr, i32, ptr, i32, i32, i32, ptr, ...) @proto_tree_add_uint_format_value(ptr noundef %9, i32 noundef %13, ptr noundef %0, i32 noundef 0, i32 noundef 1, i32 noundef %14, ptr noundef nonnull @.str.1295, ptr noundef %11, i32 noundef %14)
  %16 = load i32, ptr @hf_vsncp_opt_length, align 4
  %17 = tail call ptr @proto_tree_add_item(ptr noundef %9, i32 noundef %16, ptr noundef %0, i32 noundef 1, i32 noundef 1, i32 noundef 0)
  %18 = icmp sgt i32 %5, 2
  br i1 %18, label %.lr.ph, label %.loopexit

.lr.ph:                                           ; preds = %4
  %19 = add nsw i32 %5, -2
  %20 = getelementptr inbounds nuw i8, ptr %1, i64 408
  br label %21

21:                                               ; preds = %.lr.ph, %21
  %22 = phi i32 [ 0, %.lr.ph ], [ %39, %21 ]
  %.037 = phi i32 [ 2, %.lr.ph ], [ %36, %21 ]
  %.03336 = phi i8 [ 1, %.lr.ph ], [ %29, %21 ]
  %23 = add i32 %.037, 1
  %24 = tail call zeroext i8 @tvb_get_uint8(ptr noundef %0, i32 noundef %.037)
  %25 = load i32, ptr @hf_vsncp_access_point_name, align 4
  %26 = zext i8 %24 to i32
  %27 = load ptr, ptr %20, align 8
  %28 = tail call ptr @tvb_get_string_enc(ptr noundef %27, ptr noundef %0, i32 noundef %23, i32 noundef %26, i32 noundef 0)
  %29 = add i8 %.03336, 1
  %30 = zext i8 %.03336 to i32
  %31 = icmp eq i8 %24, 1
  %32 = select i1 %31, ptr @.str.1006, ptr @.str.1007
  %33 = load ptr, ptr %20, align 8
  %34 = tail call ptr @tvb_format_text(ptr noundef %33, ptr noundef %0, i32 noundef %23, i32 noundef %26)
  %35 = tail call ptr (ptr, i32, ptr, i32, i32, ptr, ptr, ...) @proto_tree_add_string_format(ptr noundef %9, i32 noundef %25, ptr noundef %0, i32 noundef %23, i32 noundef %26, ptr noundef %28, ptr noundef nonnull @.str.1371, i32 noundef %30, i32 noundef %26, ptr noundef nonnull %32, ptr noundef %34)
  %36 = add i32 %23, %26
  %37 = add nuw nsw i32 %22, 1
  %38 = add nuw nsw i32 %37, %26
  %39 = and i32 %38, 255
  %40 = icmp samesign ult i32 %39, %19
  br i1 %40, label %21, label %.loopexit, !llvm.loop !14

.loopexit:                                        ; preds = %21, %4
  %41 = tail call i32 @tvb_captured_length(ptr noundef %0)
  ret i32 %41
}